; Function Attrs: nounwind uwtable
define internal noundef i32 @IDABandFree(ptr noundef captures(none) %0) #0 {
  %2 = getelementptr inbounds nuw i8, ptr %0, i64 1632
  %3 = load ptr, ptr %2, align 8, !tbaa !40
  %4 = getelementptr inbounds nuw i8, ptr %3, i64 72
  %5 = load ptr, ptr %4, align 8, !tbaa !38
  tail call void @DestroyMat(ptr noundef %5) #7
  %6 = getelementptr inbounds nuw i8, ptr %3, i64 88
  %7 = load ptr, ptr %6, align 8, !tbaa !39
  tail call void @DestroyArray(ptr noundef %7) #7
  %8 = load ptr, ptr %2, align 8, !tbaa !40
  tail call void @free(ptr noundef %8) #7
  store ptr null, ptr %2, align 8, !tbaa !40
  ret i32 0
}